target datalayout = "e-m:e-p270:32:32-p271:32:32-p272:64:64-i64:64-i128:128-f80:128-n8:16:32:64-S128"
target triple = "x86_64-pc-linux-gnu"

%struct.FWCfgState = type { %struct.SysBusDevice, i16, [2 x ptr], ptr, ptr, i16, i32, %struct.Notifier, i32, i8, i64, ptr, %struct.MemoryRegion, i8, i64, i64, i64 }
%struct.SysBusDevice = type { %struct.DeviceState, i32, [32 x %struct.anon], i32, [32 x i32] }
%struct.DeviceState = type { %struct.Object, ptr, ptr, i8, i8, i64, i32, i8, ptr, %struct.NamedGPIOListHead, %struct.NamedClockListHead, %struct.BusStateHead, i32, i32, i32, %struct.ResettableState, ptr, %struct.MemReentrancyGuard }
%struct.Object = type { ptr, ptr, ptr, i32, ptr }
%struct.NamedGPIOListHead = type { ptr }
%struct.NamedClockListHead = type { ptr }
%struct.BusStateHead = type { ptr }
%struct.ResettableState = type { i32, i8, i8 }
%struct.MemReentrancyGuard = type { i8 }
%struct.anon = type { i64, ptr }
%struct.Notifier = type { ptr, %struct.anon.0 }
%struct.anon.0 = type { ptr, ptr }
%struct.MemoryRegion = type { %struct.Object, i8, i8, i8, i8, i8, i8, i8, i8, i8, i8, ptr, ptr, ptr, ptr, ptr, ptr, i32, i128, i64, ptr, i64, i8, i8, i8, i8, ptr, i64, i32, %union.anon, %union.anon.1, %union.anon.2, ptr, i32, ptr, ptr, i8 }
%union.anon = type { %struct.QTailQLink }
%struct.QTailQLink = type { ptr, ptr }
%union.anon.1 = type { %struct.QTailQLink }
%union.anon.2 = type { %struct.QTailQLink }

; Function Attrs: inlinehint nounwind sspstrong uwtable
define internal i64 @qemu_real_host_page_size() #2 {
  %1 = call i32 @getpagesize() #24
  %2 = sext i32 %1 to i64
  ret i64 %2
}

; Function Attrs: nounwind sspstrong uwtable
define internal zeroext i1 @fw_cfg_acpi_mr_restore(ptr noundef %0) #0 {
  %2 = alloca ptr, align 8
  %3 = alloca ptr, align 8
  %4 = alloca i8, align 1
  store ptr %0, ptr %2, align 8
  call void @llvm.lifetime.start.p0(i64 8, ptr %3) #18
  %5 = load ptr, ptr %2, align 8
  store ptr %5, ptr %3, align 8
  call void @llvm.lifetime.start.p0(i64 1, ptr %4) #18
  store i8 0, ptr %4, align 1, !annotation !6
  %6 = load ptr, ptr %3, align 8
  %7 = getelementptr inbounds nuw %struct.FWCfgState, ptr %6, i32 0, i32 14
  %8 = load i64, ptr %7, align 8
  %9 = call i64 @qemu_real_host_page_size()
  %10 = urem i64 %8, %9
  %11 = icmp eq i64 %10, 0
  br i1 %11, label %12, label %26

12:                                               ; preds = %1
  %13 = load ptr, ptr %3, align 8
  %14 = getelementptr inbounds nuw %struct.FWCfgState, ptr %13, i32 0, i32 15
  %15 = load i64, ptr %14, align 16
  %16 = call i64 @qemu_real_host_page_size()
  %17 = urem i64 %15, %16
  %18 = icmp eq i64 %17, 0
  br i1 %18, label %19, label %26

19:                                               ; preds = %12
  %20 = load ptr, ptr %3, align 8
  %21 = getelementptr inbounds nuw %struct.FWCfgState, ptr %20, i32 0, i32 16
  %22 = load i64, ptr %21, align 8
  %23 = call i64 @qemu_real_host_page_size()
  %24 = urem i64 %22, %23
  %25 = icmp eq i64 %24, 0
  br label %26

26:                                               ; preds = %19, %12, %1
  %27 = phi i1 [ false, %12 ], [ false, %1 ], [ %25, %19 ]
  %28 = zext i1 %27 to i8
  store i8 %28, ptr %4, align 1
  %29 = load ptr, ptr %3, align 8
  %30 = getelementptr inbounds nuw %struct.FWCfgState, ptr %29, i32 0, i32 13
  %31 = load i8, ptr %30, align 16, !range !4, !noundef !5
  %32 = trunc i8 %31 to i1
  br i1 %32, label %33, label %37

33:                                               ; preds = %26
  %34 = load i8, ptr %4, align 1, !range !4, !noundef !5
  %35 = trunc i8 %34 to i1
  %36 = xor i1 %35, true
  br label %37

37:                                               ; preds = %33, %26
  %38 = phi i1 [ false, %26 ], [ %36, %33 ]
  call void @llvm.lifetime.end.p0(i64 1, ptr %4) #18
  call void @llvm.lifetime.end.p0(i64 8, ptr %3) #18
  ret i1 %38
}