; Function Attrs: mustprogress nofree nosync nounwind sspstrong willreturn memory(argmem: read) uwtable
define internal zeroext i1 @fw_cfg_acpi_mr_restore(ptr noundef readonly captures(none) %0) #14 {
  %2 = getelementptr inbounds nuw i8, ptr %0, i64 1192
  %3 = load i64, ptr %2, align 8
  %4 = tail call i32 @getpagesize() #24
  %5 = sext i32 %4 to i64
  %6 = urem i64 %3, %5
  %7 = icmp eq i64 %6, 0
  br i1 %7, label %8, label %18

8:                                                ; preds = %1
  %9 = getelementptr inbounds nuw i8, ptr %0, i64 1200
  %10 = load i64, ptr %9, align 16
  %11 = urem i64 %10, %5
  %12 = icmp eq i64 %11, 0
  br i1 %12, label %13, label %18

13:                                               ; preds = %8
  %14 = getelementptr inbounds nuw i8, ptr %0, i64 1208
  %15 = load i64, ptr %14, align 8
  %16 = urem i64 %15, %5
  %17 = icmp ne i64 %16, 0
  br label %18

18:                                               ; preds = %13, %8, %1
  %19 = phi i1 [ true, %8 ], [ true, %1 ], [ %17, %13 ]
  %20 = getelementptr inbounds nuw i8, ptr %0, i64 1184
  %21 = load i8, ptr %20, align 16, !range !4, !noundef !5
  %22 = trunc nuw i8 %21 to i1
  %23 = select i1 %22, i1 %19, i1 false
  ret i1 %23
}